target datalayout = "e-m:e-p270:32:32-p271:32:32-p272:64:64-i64:64-i128:128-f80:128-n8:16:32:64-S128"
target triple = "x86_64-pc-linux-gnu"

; Function Attrs: nounwind uwtable
define hidden i32 @mbedtls_asn1_get_len(ptr noundef %0, ptr noundef %1, ptr noundef %2) #0 {
  %4 = alloca i32, align 4
  %5 = alloca ptr, align 8
  %6 = alloca ptr, align 8
  %7 = alloca ptr, align 8
  %8 = alloca i32, align 4
  %9 = alloca i32, align 4
  store ptr %0, ptr %5, align 8, !tbaa !3
  store ptr %1, ptr %6, align 8, !tbaa !9
  store ptr %2, ptr %7, align 8, !tbaa !11
  %10 = load ptr, ptr %6, align 8, !tbaa !9
  %11 = load ptr, ptr %5, align 8, !tbaa !3
  %12 = load ptr, ptr %11, align 8, !tbaa !9
  %13 = ptrtoint ptr %10 to i64
  %14 = ptrtoint ptr %12 to i64
  %15 = sub i64 %13, %14
  %16 = icmp slt i64 %15, 1
  br i1 %16, label %17, label %18

17:                                               ; preds = %3
  store i32 -96, ptr %4, align 4
  br label %93

18:                                               ; preds = %3
  %19 = load ptr, ptr %5, align 8, !tbaa !3
  %20 = load ptr, ptr %19, align 8, !tbaa !9
  %21 = load i8, ptr %20, align 1, !tbaa !13
  %22 = zext i8 %21 to i32
  %23 = and i32 %22, 128
  %24 = icmp eq i32 %23, 0
  br i1 %24, label %25, label %32

25:                                               ; preds = %18
  %26 = load ptr, ptr %5, align 8, !tbaa !3
  %27 = load ptr, ptr %26, align 8, !tbaa !9
  %28 = getelementptr inbounds nuw i8, ptr %27, i32 1
  store ptr %28, ptr %26, align 8, !tbaa !9
  %29 = load i8, ptr %27, align 1, !tbaa !13
  %30 = zext i8 %29 to i64
  %31 = load ptr, ptr %7, align 8, !tbaa !11
  store i64 %30, ptr %31, align 8, !tbaa !14
  br label %81

32:                                               ; preds = %18
  call void @llvm.lifetime.start.p0(i64 4, ptr %8) #7
  %33 = load ptr, ptr %5, align 8, !tbaa !3
  %34 = load ptr, ptr %33, align 8, !tbaa !9
  %35 = load i8, ptr %34, align 1, !tbaa !13
  %36 = zext i8 %35 to i32
  %37 = and i32 %36, 127
  store i32 %37, ptr %8, align 4, !tbaa !16
  %38 = load i32, ptr %8, align 4, !tbaa !16
  %39 = icmp eq i32 %38, 0
  br i1 %39, label %43, label %40

40:                                               ; preds = %32
  %41 = load i32, ptr %8, align 4, !tbaa !16
  %42 = icmp sgt i32 %41, 4
  br i1 %42, label %43, label %44

43:                                               ; preds = %40, %32
  store i32 -100, ptr %4, align 4
  store i32 1, ptr %9, align 4
  br label %78

44:                                               ; preds = %40
  %45 = load ptr, ptr %6, align 8, !tbaa !9
  %46 = load ptr, ptr %5, align 8, !tbaa !3
  %47 = load ptr, ptr %46, align 8, !tbaa !9
  %48 = ptrtoint ptr %45 to i64
  %49 = ptrtoint ptr %47 to i64
  %50 = sub i64 %48, %49
  %51 = load i32, ptr %8, align 4, !tbaa !16
  %52 = sext i32 %51 to i64
  %53 = icmp sle i64 %50, %52
  br i1 %53, label %54, label %55

54:                                               ; preds = %44
  store i32 -96, ptr %4, align 4
  store i32 1, ptr %9, align 4
  br label %78

55:                                               ; preds = %44
  %56 = load ptr, ptr %7, align 8, !tbaa !11
  store i64 0, ptr %56, align 8, !tbaa !14
  %57 = load ptr, ptr %5, align 8, !tbaa !3
  %58 = load ptr, ptr %57, align 8, !tbaa !9
  %59 = getelementptr inbounds nuw i8, ptr %58, i32 1
  store ptr %59, ptr %57, align 8, !tbaa !9
  br label %60

60:                                               ; preds = %64, %55
  %61 = load i32, ptr %8, align 4, !tbaa !16
  %62 = add nsw i32 %61, -1
  store i32 %62, ptr %8, align 4, !tbaa !16
  %63 = icmp ne i32 %61, 0
  br i1 %63, label %64, label %77

64:                                               ; preds = %60
  %65 = load ptr, ptr %7, align 8, !tbaa !11
  %66 = load i64, ptr %65, align 8, !tbaa !14
  %67 = shl i64 %66, 8
  %68 = load ptr, ptr %5, align 8, !tbaa !3
  %69 = load ptr, ptr %68, align 8, !tbaa !9
  %70 = load i8, ptr %69, align 1, !tbaa !13
  %71 = zext i8 %70 to i64
  %72 = or i64 %67, %71
  %73 = load ptr, ptr %7, align 8, !tbaa !11
  store i64 %72, ptr %73, align 8, !tbaa !14
  %74 = load ptr, ptr %5, align 8, !tbaa !3
  %75 = load ptr, ptr %74, align 8, !tbaa !9
  %76 = getelementptr inbounds nuw i8, ptr %75, i32 1
  store ptr %76, ptr %74, align 8, !tbaa !9
  br label %60, !llvm.loop !18

77:                                               ; preds = %60
  store i32 0, ptr %9, align 4
  br label %78

78:                                               ; preds = %77, %54, %43
  call void @llvm.lifetime.end.p0(i64 4, ptr %8) #7
  %79 = load i32, ptr %9, align 4
  switch i32 %79, label %95 [
    i32 0, label %80
    i32 1, label %93
  ]

80:                                               ; preds = %78
  br label %81

81:                                               ; preds = %80, %25
  %82 = load ptr, ptr %7, align 8, !tbaa !11
  %83 = load i64, ptr %82, align 8, !tbaa !14
  %84 = load ptr, ptr %6, align 8, !tbaa !9
  %85 = load ptr, ptr %5, align 8, !tbaa !3
  %86 = load ptr, ptr %85, align 8, !tbaa !9
  %87 = ptrtoint ptr %84 to i64
  %88 = ptrtoint ptr %86 to i64
  %89 = sub i64 %87, %88
  %90 = icmp ugt i64 %83, %89
  br i1 %90, label %91, label %92

91:                                               ; preds = %81
  store i32 -96, ptr %4, align 4
  br label %93

92:                                               ; preds = %81
  store i32 0, ptr %4, align 4
  br label %93

93:                                               ; preds = %92, %91, %78, %17
  %94 = load i32, ptr %4, align 4
  ret i32 %94

95:                                               ; preds = %78
  unreachable
}

; Function Attrs: nounwind uwtable
define hidden i32 @mbedtls_asn1_get_tag(ptr noundef %0, ptr noundef %1, ptr noundef %2, i32 noundef %3) #0 {
  %5 = alloca i32, align 4
  %6 = alloca ptr, align 8
  %7 = alloca ptr, align 8
  %8 = alloca ptr, align 8
  %9 = alloca i32, align 4
  store ptr %0, ptr %6, align 8, !tbaa !3
  store ptr %1, ptr %7, align 8, !tbaa !9
  store ptr %2, ptr %8, align 8, !tbaa !11
  store i32 %3, ptr %9, align 4, !tbaa !16
  %10 = load ptr, ptr %7, align 8, !tbaa !9
  %11 = load ptr, ptr %6, align 8, !tbaa !3
  %12 = load ptr, ptr %11, align 8, !tbaa !9
  %13 = ptrtoint ptr %10 to i64
  %14 = ptrtoint ptr %12 to i64
  %15 = sub i64 %13, %14
  %16 = icmp slt i64 %15, 1
  br i1 %16, label %17, label %18

17:                                               ; preds = %4
  store i32 -96, ptr %5, align 4
  br label %34

18:                                               ; preds = %4
  %19 = load ptr, ptr %6, align 8, !tbaa !3
  %20 = load ptr, ptr %19, align 8, !tbaa !9
  %21 = load i8, ptr %20, align 1, !tbaa !13
  %22 = zext i8 %21 to i32
  %23 = load i32, ptr %9, align 4, !tbaa !16
  %24 = icmp ne i32 %22, %23
  br i1 %24, label %25, label %26

25:                                               ; preds = %18
  store i32 -98, ptr %5, align 4
  br label %34

26:                                               ; preds = %18
  %27 = load ptr, ptr %6, align 8, !tbaa !3
  %28 = load ptr, ptr %27, align 8, !tbaa !9
  %29 = getelementptr inbounds nuw i8, ptr %28, i32 1
  store ptr %29, ptr %27, align 8, !tbaa !9
  %30 = load ptr, ptr %6, align 8, !tbaa !3
  %31 = load ptr, ptr %7, align 8, !tbaa !9
  %32 = load ptr, ptr %8, align 8, !tbaa !11
  %33 = call i32 @mbedtls_asn1_get_len(ptr noundef %30, ptr noundef %31, ptr noundef %32)
  store i32 %33, ptr %5, align 4
  br label %34

34:                                               ; preds = %26, %25, %17
  %35 = load i32, ptr %5, align 4
  ret i32 %35
}

; Function Attrs: nounwind uwtable
define internal i32 @asn1_get_tagged_int(ptr noundef %0, ptr noundef %1, i32 noundef %2, ptr noundef %3) #0 {
  %5 = alloca i32, align 4
  %6 = alloca ptr, align 8
  %7 = alloca ptr, align 8
  %8 = alloca i32, align 4
  %9 = alloca ptr, align 8
  %10 = alloca i32, align 4
  %11 = alloca i64, align 8
  %12 = alloca i32, align 4
  store ptr %0, ptr %6, align 8, !tbaa !3
  store ptr %1, ptr %7, align 8, !tbaa !9
  store i32 %2, ptr %8, align 4, !tbaa !16
  store ptr %3, ptr %9, align 8, !tbaa !20
  call void @llvm.lifetime.start.p0(i64 4, ptr %10) #7
  store i32 -110, ptr %10, align 4, !tbaa !16
  call void @llvm.lifetime.start.p0(i64 8, ptr %11) #7
  %13 = load ptr, ptr %6, align 8, !tbaa !3
  %14 = load ptr, ptr %7, align 8, !tbaa !9
  %15 = load i32, ptr %8, align 4, !tbaa !16
  %16 = call i32 @mbedtls_asn1_get_tag(ptr noundef %13, ptr noundef %14, ptr noundef %11, i32 noundef %15)
  store i32 %16, ptr %10, align 4, !tbaa !16
  %17 = icmp ne i32 %16, 0
  br i1 %17, label %18, label %20

18:                                               ; preds = %4
  %19 = load i32, ptr %10, align 4, !tbaa !16
  store i32 %19, ptr %5, align 4
  store i32 1, ptr %12, align 4
  br label %85

20:                                               ; preds = %4
  %21 = load i64, ptr %11, align 8, !tbaa !14
  %22 = icmp eq i64 %21, 0
  br i1 %22, label %23, label %24

23:                                               ; preds = %20
  store i32 -100, ptr %5, align 4
  store i32 1, ptr %12, align 4
  br label %85

24:                                               ; preds = %20
  %25 = load ptr, ptr %6, align 8, !tbaa !3
  %26 = load ptr, ptr %25, align 8, !tbaa !9
  %27 = load i8, ptr %26, align 1, !tbaa !13
  %28 = zext i8 %27 to i32
  %29 = and i32 %28, 128
  %30 = icmp ne i32 %29, 0
  br i1 %30, label %31, label %32

31:                                               ; preds = %24
  store i32 -100, ptr %5, align 4
  store i32 1, ptr %12, align 4
  br label %85

32:                                               ; preds = %24
  br label %33

33:                                               ; preds = %44, %32
  %34 = load i64, ptr %11, align 8, !tbaa !14
  %35 = icmp ugt i64 %34, 0
  br i1 %35, label %36, label %42

36:                                               ; preds = %33
  %37 = load ptr, ptr %6, align 8, !tbaa !3
  %38 = load ptr, ptr %37, align 8, !tbaa !9
  %39 = load i8, ptr %38, align 1, !tbaa !13
  %40 = zext i8 %39 to i32
  %41 = icmp eq i32 %40, 0
  br label %42

42:                                               ; preds = %36, %33
  %43 = phi i1 [ false, %33 ], [ %41, %36 ]
  br i1 %43, label %44, label %50

44:                                               ; preds = %42
  %45 = load ptr, ptr %6, align 8, !tbaa !3
  %46 = load ptr, ptr %45, align 8, !tbaa !9
  %47 = getelementptr inbounds nuw i8, ptr %46, i32 1
  store ptr %47, ptr %45, align 8, !tbaa !9
  %48 = load i64, ptr %11, align 8, !tbaa !14
  %49 = add i64 %48, -1
  store i64 %49, ptr %11, align 8, !tbaa !14
  br label %33, !llvm.loop !22

50:                                               ; preds = %42
  %51 = load i64, ptr %11, align 8, !tbaa !14
  %52 = icmp ugt i64 %51, 4
  br i1 %52, label %53, label %54

53:                                               ; preds = %50
  store i32 -100, ptr %5, align 4
  store i32 1, ptr %12, align 4
  br label %85

54:                                               ; preds = %50
  %55 = load i64, ptr %11, align 8, !tbaa !14
  %56 = icmp eq i64 %55, 4
  br i1 %56, label %57, label %65

57:                                               ; preds = %54
  %58 = load ptr, ptr %6, align 8, !tbaa !3
  %59 = load ptr, ptr %58, align 8, !tbaa !9
  %60 = load i8, ptr %59, align 1, !tbaa !13
  %61 = zext i8 %60 to i32
  %62 = and i32 %61, 128
  %63 = icmp ne i32 %62, 0
  br i1 %63, label %64, label %65

64:                                               ; preds = %57
  store i32 -100, ptr %5, align 4
  store i32 1, ptr %12, align 4
  br label %85

65:                                               ; preds = %57, %54
  %66 = load ptr, ptr %9, align 8, !tbaa !20
  store i32 0, ptr %66, align 4, !tbaa !16
  br label %67

67:                                               ; preds = %71, %65
  %68 = load i64, ptr %11, align 8, !tbaa !14
  %69 = add i64 %68, -1
  store i64 %69, ptr %11, align 8, !tbaa !14
  %70 = icmp ugt i64 %68, 0
  br i1 %70, label %71, label %84

71:                                               ; preds = %67
  %72 = load ptr, ptr %9, align 8, !tbaa !20
  %73 = load i32, ptr %72, align 4, !tbaa !16
  %74 = shl i32 %73, 8
  %75 = load ptr, ptr %6, align 8, !tbaa !3
  %76 = load ptr, ptr %75, align 8, !tbaa !9
  %77 = load i8, ptr %76, align 1, !tbaa !13
  %78 = zext i8 %77 to i32
  %79 = or i32 %74, %78
  %80 = load ptr, ptr %9, align 8, !tbaa !20
  store i32 %79, ptr %80, align 4, !tbaa !16
  %81 = load ptr, ptr %6, align 8, !tbaa !3
  %82 = load ptr, ptr %81, align 8, !tbaa !9
  %83 = getelementptr inbounds nuw i8, ptr %82, i32 1
  store ptr %83, ptr %81, align 8, !tbaa !9
  br label %67, !llvm.loop !23

84:                                               ; preds = %67
  store i32 0, ptr %5, align 4
  store i32 1, ptr %12, align 4
  br label %85

85:                                               ; preds = %84, %64, %53, %31, %23, %18
  call void @llvm.lifetime.end.p0(i64 8, ptr %11) #7
  call void @llvm.lifetime.end.p0(i64 4, ptr %10) #7
  %86 = load i32, ptr %5, align 4
  ret i32 %86
}