; Function Attrs: nofree norecurse nosync nounwind memory(read, argmem: readwrite, inaccessiblemem: none) uwtable
define internal fastcc range(i32 -100, 1) i32 @asn1_get_tagged_int(ptr noundef captures(none) %0, ptr noundef %1, i32 noundef range(i32 2, 11) %2, ptr noundef writeonly captures(none) %3) unnamed_addr #0 {
  %5 = load ptr, ptr %0, align 8, !tbaa !3
  %6 = ptrtoint ptr %1 to i64
  %7 = ptrtoint ptr %5 to i64
  %8 = sub i64 %6, %7
  %9 = icmp slt i64 %8, 1
  br i1 %9, label %mbedtls_asn1_get_tag.exit.thread, label %10

10:                                               ; preds = %4
  %11 = load i8, ptr %5, align 1, !tbaa !8
  %12 = zext i8 %11 to i32
  %.not.i = icmp eq i32 %2, %12
  br i1 %.not.i, label %13, label %mbedtls_asn1_get_tag.exit.thread

13:                                               ; preds = %10
  %14 = getelementptr inbounds nuw i8, ptr %5, i64 1
  store ptr %14, ptr %0, align 8, !tbaa !3
  %15 = ptrtoint ptr %14 to i64
  %16 = sub i64 %6, %15
  %17 = icmp slt i64 %16, 1
  br i1 %17, label %mbedtls_asn1_get_tag.exit.thread, label %18

18:                                               ; preds = %13
  %19 = load i8, ptr %14, align 1, !tbaa !8
  %20 = icmp sgt i8 %19, -1
  br i1 %20, label %21, label %25

21:                                               ; preds = %18
  %22 = getelementptr inbounds nuw i8, ptr %5, i64 2
  store ptr %22, ptr %0, align 8, !tbaa !3
  %23 = load i8, ptr %14, align 1, !tbaa !8
  %24 = zext i8 %23 to i64
  br label %.loopexit.i.i

25:                                               ; preds = %18
  %26 = and i8 %19, 127
  %27 = zext nneg i8 %26 to i32
  %28 = add nsw i8 %26, -5
  %or.cond.i.i = icmp ult i8 %28, -4
  br i1 %or.cond.i.i, label %mbedtls_asn1_get_tag.exit.thread, label %29

29:                                               ; preds = %25
  %30 = zext nneg i8 %26 to i64
  %.not.i.i = icmp samesign ugt i64 %16, %30
  br i1 %.not.i.i, label %.lr.ph.preheader.i.i, label %mbedtls_asn1_get_tag.exit.thread

.lr.ph.preheader.i.i:                             ; preds = %29
  %storemerge32.i.i = getelementptr inbounds nuw i8, ptr %5, i64 2
  store ptr %storemerge32.i.i, ptr %0, align 8, !tbaa !3
  br label %.lr.ph.i.i

.lr.ph.i.i:                                       ; preds = %.lr.ph.i.i, %.lr.ph.preheader.i.i
  %storemerge36.i.i = phi ptr [ %storemerge.i.i, %.lr.ph.i.i ], [ %storemerge32.i.i, %.lr.ph.preheader.i.i ]
  %.02335.i.i = phi i32 [ %31, %.lr.ph.i.i ], [ %27, %.lr.ph.preheader.i.i ]
  %storemerge3134.i.i = phi i64 [ %35, %.lr.ph.i.i ], [ 0, %.lr.ph.preheader.i.i ]
  %31 = add nsw i32 %.02335.i.i, -1
  %32 = shl i64 %storemerge3134.i.i, 8
  %33 = load i8, ptr %storemerge36.i.i, align 1, !tbaa !8
  %34 = zext i8 %33 to i64
  %35 = or disjoint i64 %32, %34
  %storemerge.i.i = getelementptr inbounds nuw i8, ptr %storemerge36.i.i, i64 1
  store ptr %storemerge.i.i, ptr %0, align 8, !tbaa !3
  %.not27.i.i = icmp eq i32 %31, 0
  br i1 %.not27.i.i, label %.loopexit.i.i, label %.lr.ph.i.i, !llvm.loop !11

.loopexit.i.i:                                    ; preds = %.lr.ph.i.i, %21
  %.2 = phi i64 [ %24, %21 ], [ %35, %.lr.ph.i.i ]
  %.promoted = phi ptr [ %22, %21 ], [ %storemerge.i.i, %.lr.ph.i.i ]
  %36 = ptrtoint ptr %.promoted to i64
  %37 = sub i64 %6, %36
  %38 = icmp ugt i64 %.2, %37
  br i1 %38, label %mbedtls_asn1_get_tag.exit.thread, label %mbedtls_asn1_get_tag.exit

mbedtls_asn1_get_tag.exit:                        ; preds = %.loopexit.i.i
  %39 = icmp eq i64 %.2, 0
  br i1 %39, label %mbedtls_asn1_get_tag.exit.thread, label %40

40:                                               ; preds = %mbedtls_asn1_get_tag.exit
  %41 = load i8, ptr %.promoted, align 1, !tbaa !8
  %.not15 = icmp sgt i8 %41, -1
  br i1 %.not15, label %.preheader.preheader, label %mbedtls_asn1_get_tag.exit.thread

.preheader.preheader:                             ; preds = %40
  %42 = icmp eq i8 %41, 0
  br i1 %42, label %.lr.ph53, label %.critedge

thread-pre-split:                                 ; preds = %.lr.ph53
  %.pr = load i8, ptr %45, align 1, !tbaa !8
  %43 = icmp eq i8 %.pr, 0
  br i1 %43, label %.lr.ph53, label %.preheader..critedge_crit_edge

.lr.ph53:                                         ; preds = %.preheader.preheader, %thread-pre-split
  %44 = phi ptr [ %45, %thread-pre-split ], [ %.promoted, %.preheader.preheader ]
  %.0232952 = phi i64 [ %46, %thread-pre-split ], [ %.2, %.preheader.preheader ]
  %45 = getelementptr inbounds nuw i8, ptr %44, i64 1
  store ptr %45, ptr %0, align 8, !tbaa !3
  %46 = add i64 %.0232952, -1
  %.not16 = icmp eq i64 %46, 0
  br i1 %.not16, label %.thread, label %thread-pre-split, !llvm.loop !15

.preheader..critedge_crit_edge:                   ; preds = %thread-pre-split
  %47 = icmp sgt i8 %.pr, -1
  br label %.critedge

.critedge:                                        ; preds = %.preheader..critedge_crit_edge, %.preheader.preheader
  %.lcssa49 = phi i1 [ %47, %.preheader..critedge_crit_edge ], [ true, %.preheader.preheader ]
  %.02329.lcssa = phi i64 [ %46, %.preheader..critedge_crit_edge ], [ %.2, %.preheader.preheader ]
  %.lcssa = phi ptr [ %45, %.preheader..critedge_crit_edge ], [ %.promoted, %.preheader.preheader ]
  %48 = icmp ult i64 %.02329.lcssa, 5
  %49 = icmp ne i64 %.02329.lcssa, 4
  %or.cond = or i1 %49, %.lcssa49
  %or.cond56 = and i1 %48, %or.cond
  br i1 %or.cond56, label %.lr.ph, label %mbedtls_asn1_get_tag.exit.thread

.thread:                                          ; preds = %.lr.ph53
  store i32 0, ptr %3, align 4, !tbaa !13
  br label %mbedtls_asn1_get_tag.exit.thread

.lr.ph:                                           ; preds = %.critedge
  store i32 0, ptr %3, align 4, !tbaa !13
  br label %50

50:                                               ; preds = %.lr.ph, %50
  %51 = phi ptr [ %.lcssa, %.lr.ph ], [ %58, %50 ]
  %52 = phi i32 [ 0, %.lr.ph ], [ %57, %50 ]
  %.131 = phi i64 [ %.02329.lcssa, %.lr.ph ], [ %53, %50 ]
  %53 = add i64 %.131, -1
  %54 = shl i32 %52, 8
  %55 = load i8, ptr %51, align 1, !tbaa !8
  %56 = zext i8 %55 to i32
  %57 = or disjoint i32 %54, %56
  store i32 %57, ptr %3, align 4, !tbaa !13
  %58 = getelementptr inbounds nuw i8, ptr %51, i64 1
  store ptr %58, ptr %0, align 8, !tbaa !3
  %.not18 = icmp eq i64 %53, 0
  br i1 %.not18, label %mbedtls_asn1_get_tag.exit.thread, label %50, !llvm.loop !16

mbedtls_asn1_get_tag.exit.thread:                 ; preds = %50, %.thread, %.loopexit.i.i, %25, %29, %13, %10, %4, %.critedge, %40, %mbedtls_asn1_get_tag.exit
  %.0 = phi i32 [ -100, %mbedtls_asn1_get_tag.exit ], [ -100, %40 ], [ -100, %.critedge ], [ -100, %25 ], [ -96, %29 ], [ -96, %13 ], [ -98, %10 ], [ -96, %4 ], [ -96, %.loopexit.i.i ], [ 0, %.thread ], [ 0, %50 ]
  ret i32 %.0
}